target datalayout = "e-m:e-p270:32:32-p271:32:32-p272:64:64-i64:64-i128:128-f80:128-n8:16:32:64-S128"
target triple = "x86_64-pc-linux-gnu"

%struct.AVFormatContext = type { ptr, ptr, ptr, ptr, ptr, i32, i32, ptr, i32, ptr, i32, ptr, ptr, i64, i64, i64, i32, i32, i32, i64, i64, ptr, i32, i32, ptr, i32, i32, i32, i32, ptr, i64, i32, i32, %struct.AVIOInterruptCB, i32, i32, i32, i32, i64, i32, i32, i32, i32, i32, i32, i32, i32, i32, i32, i32, i32, i64, i32, i32, i32, i32, i32, ptr, ptr, ptr, ptr, i32, ptr, ptr, ptr, ptr, i32, ptr, ptr, i64, ptr, ptr, ptr, i64 }
%struct.AVIOInterruptCB = type { ptr, ptr }
%struct.ASFContext = type { i32, i32, i32, i64, i64, i32, i64, i32, i32, i32, i64, i64, i64, i64, i64, i64, i32, [128 x ptr], [128 x %struct.ASFStreamData], i32, i32, i64, i64, i8, i32, i64, i32, i32, i64, i32, i16, i64, i32, i32 }
%struct.ASFStreamData = type { [32 x i8], ptr, %struct.AVRational }
%struct.AVRational = type { i32, i32 }

; Function Attrs: alwaysinline nounwind uwtable
define internal i64 @avio_tell(ptr noundef %0) #1 {
  %2 = alloca ptr, align 8
  store ptr %0, ptr %2, align 8, !tbaa !33
  %3 = load ptr, ptr %2, align 8, !tbaa !33
  %4 = call i64 @avio_seek(ptr noundef %3, i64 noundef 0, i32 noundef 1)
  ret i64 %4
}

; Function Attrs: nounwind uwtable
define internal void @align_position(ptr noundef %0, i64 noundef %1, i64 noundef %2) #0 {
  %4 = alloca ptr, align 8
  %5 = alloca i64, align 8
  %6 = alloca i64, align 8
  store ptr %0, ptr %4, align 8, !tbaa !33
  store i64 %1, ptr %5, align 8, !tbaa !47
  store i64 %2, ptr %6, align 8, !tbaa !47
  %7 = load i64, ptr %6, align 8, !tbaa !47
  %8 = load i64, ptr %5, align 8, !tbaa !47
  %9 = sub nsw i64 9223372036854775807, %8
  %10 = icmp ult i64 %7, %9
  br i1 %10, label %11, label %24

11:                                               ; preds = %3
  %12 = load ptr, ptr %4, align 8, !tbaa !33
  %13 = call i64 @avio_tell(ptr noundef %12)
  %14 = load i64, ptr %5, align 8, !tbaa !47
  %15 = load i64, ptr %6, align 8, !tbaa !47
  %16 = add i64 %14, %15
  %17 = icmp ne i64 %13, %16
  br i1 %17, label %18, label %24

18:                                               ; preds = %11
  %19 = load ptr, ptr %4, align 8, !tbaa !33
  %20 = load i64, ptr %5, align 8, !tbaa !47
  %21 = load i64, ptr %6, align 8, !tbaa !47
  %22 = add i64 %20, %21
  %23 = call i64 @avio_seek(ptr noundef %19, i64 noundef %22, i32 noundef 0)
  br label %24

24:                                               ; preds = %18, %11, %3
  ret void
}

; Function Attrs: nounwind uwtable
define internal i32 @asf_read_language_list(ptr noundef %0, ptr noundef %1) #0 {
  %3 = alloca i32, align 4
  %4 = alloca ptr, align 8
  %5 = alloca ptr, align 8
  %6 = alloca ptr, align 8
  %7 = alloca ptr, align 8
  %8 = alloca i32, align 4
  %9 = alloca i32, align 4
  %10 = alloca i64, align 8
  %11 = alloca i16, align 2
  %12 = alloca i64, align 8
  %13 = alloca i32, align 4
  store ptr %0, ptr %4, align 8, !tbaa !13
  store ptr %1, ptr %5, align 8, !tbaa !34
  call void @llvm.lifetime.start.p0(i64 8, ptr %6) #10
  %14 = load ptr, ptr %4, align 8, !tbaa !13
  %15 = getelementptr inbounds nuw %struct.AVFormatContext, ptr %14, i32 0, i32 3
  %16 = load ptr, ptr %15, align 8, !tbaa !15
  store ptr %16, ptr %6, align 8, !tbaa !30
  call void @llvm.lifetime.start.p0(i64 8, ptr %7) #10
  %17 = load ptr, ptr %4, align 8, !tbaa !13
  %18 = getelementptr inbounds nuw %struct.AVFormatContext, ptr %17, i32 0, i32 4
  %19 = load ptr, ptr %18, align 8, !tbaa !32
  store ptr %19, ptr %7, align 8, !tbaa !33
  call void @llvm.lifetime.start.p0(i64 4, ptr %8) #10
  call void @llvm.lifetime.start.p0(i64 4, ptr %9) #10
  call void @llvm.lifetime.start.p0(i64 8, ptr %10) #10
  %20 = load ptr, ptr %7, align 8, !tbaa !33
  %21 = call i64 @avio_rl64(ptr noundef %20)
  store i64 %21, ptr %10, align 8, !tbaa !47
  call void @llvm.lifetime.start.p0(i64 2, ptr %11) #10
  %22 = load ptr, ptr %7, align 8, !tbaa !33
  %23 = call i32 @avio_rl16(ptr noundef %22)
  %24 = trunc i32 %23 to i16
  store i16 %24, ptr %11, align 2, !tbaa !132
  %25 = load i16, ptr %11, align 2, !tbaa !132
  %26 = zext i16 %25 to i32
  %27 = icmp slt i32 %26, 128
  br i1 %27, label %28, label %64

28:                                               ; preds = %2
  store i32 0, ptr %8, align 4, !tbaa !42
  br label %29

29:                                               ; preds = %60, %28
  %30 = load i32, ptr %8, align 4, !tbaa !42
  %31 = load i16, ptr %11, align 2, !tbaa !132
  %32 = zext i16 %31 to i32
  %33 = icmp slt i32 %30, %32
  br i1 %33, label %34, label %63

34:                                               ; preds = %29
  call void @llvm.lifetime.start.p0(i64 8, ptr %12) #10
  %35 = load ptr, ptr %7, align 8, !tbaa !33
  %36 = call i32 @avio_r8(ptr noundef %35)
  %37 = sext i32 %36 to i64
  store i64 %37, ptr %12, align 8, !tbaa !47
  %38 = load i64, ptr %12, align 8, !tbaa !47
  %39 = icmp ne i64 %38, 0
  br i1 %39, label %41, label %40

40:                                               ; preds = %34
  store i64 6, ptr %12, align 8, !tbaa !47
  br label %41

41:                                               ; preds = %40, %34
  %42 = load ptr, ptr %7, align 8, !tbaa !33
  %43 = load i64, ptr %12, align 8, !tbaa !47
  %44 = trunc i64 %43 to i32
  %45 = load ptr, ptr %6, align 8, !tbaa !30
  %46 = getelementptr inbounds nuw %struct.ASFContext, ptr %45, i32 0, i32 18
  %47 = load i32, ptr %8, align 4, !tbaa !42
  %48 = sext i32 %47 to i64
  %49 = getelementptr inbounds [128 x %struct.ASFStreamData], ptr %46, i64 0, i64 %48
  %50 = getelementptr inbounds nuw %struct.ASFStreamData, ptr %49, i32 0, i32 0
  %51 = getelementptr inbounds [32 x i8], ptr %50, i64 0, i64 0
  %52 = call i32 @get_asf_string(ptr noundef %42, i32 noundef %44, ptr noundef %51, i32 noundef 32)
  store i32 %52, ptr %9, align 4, !tbaa !42
  %53 = icmp slt i32 %52, 0
  br i1 %53, label %54, label %56

54:                                               ; preds = %41
  %55 = load i32, ptr %9, align 4, !tbaa !42
  store i32 %55, ptr %3, align 4
  store i32 1, ptr %13, align 4
  br label %57

56:                                               ; preds = %41
  store i32 0, ptr %13, align 4
  br label %57

57:                                               ; preds = %56, %54
  call void @llvm.lifetime.end.p0(i64 8, ptr %12) #10
  %58 = load i32, ptr %13, align 4
  switch i32 %58, label %70 [
    i32 0, label %59
  ]

59:                                               ; preds = %57
  br label %60

60:                                               ; preds = %59
  %61 = load i32, ptr %8, align 4, !tbaa !42
  %62 = add nsw i32 %61, 1
  store i32 %62, ptr %8, align 4, !tbaa !42
  br label %29, !llvm.loop !167

63:                                               ; preds = %29
  br label %64

64:                                               ; preds = %63, %2
  %65 = load ptr, ptr %7, align 8, !tbaa !33
  %66 = load ptr, ptr %6, align 8, !tbaa !30
  %67 = getelementptr inbounds nuw %struct.ASFContext, ptr %66, i32 0, i32 12
  %68 = load i64, ptr %67, align 8, !tbaa !41
  %69 = load i64, ptr %10, align 8, !tbaa !47
  call void @align_position(ptr noundef %65, i64 noundef %68, i64 noundef %69)
  store i32 0, ptr %3, align 4
  store i32 1, ptr %13, align 4
  br label %70

70:                                               ; preds = %64, %57
  call void @llvm.lifetime.end.p0(i64 2, ptr %11) #10
  call void @llvm.lifetime.end.p0(i64 8, ptr %10) #10
  call void @llvm.lifetime.end.p0(i64 4, ptr %9) #10
  call void @llvm.lifetime.end.p0(i64 4, ptr %8) #10
  call void @llvm.lifetime.end.p0(i64 8, ptr %7) #10
  call void @llvm.lifetime.end.p0(i64 8, ptr %6) #10
  %71 = load i32, ptr %3, align 4
  ret i32 %71
}