; Function Attrs: nounwind uwtable
define internal range(i32 -2147483648, 1) i32 @asf_read_language_list(ptr noundef readonly captures(none) %0, ptr readnone captures(none) %1) #1 {
  %3 = getelementptr inbounds nuw i8, ptr %0, i64 24
  %4 = load ptr, ptr %3, align 8, !tbaa !11
  %5 = getelementptr inbounds nuw i8, ptr %0, i64 32
  %6 = load ptr, ptr %5, align 8, !tbaa !26
  %7 = tail call i64 @avio_rl64(ptr noundef %6) #12
  %8 = tail call i32 @avio_rl16(ptr noundef %6) #12
  %9 = and i32 %8, 65535
  %10 = add nsw i32 %9, -1
  %or.cond = icmp ult i32 %10, 127
  br i1 %or.cond, label %.lr.ph, label %.loopexit

.lr.ph:                                           ; preds = %2
  %11 = getelementptr inbounds nuw i8, ptr %4, i64 1144
  %wide.trip.count = zext nneg i32 %9 to i64
  br label %13

12:                                               ; preds = %13
  %indvars.iv.next = add nuw nsw i64 %indvars.iv, 1
  %exitcond.not = icmp eq i64 %indvars.iv.next, %wide.trip.count
  br i1 %exitcond.not, label %.loopexit, label %13, !llvm.loop !165

13:                                               ; preds = %.lr.ph, %12
  %indvars.iv = phi i64 [ 0, %.lr.ph ], [ %indvars.iv.next, %12 ]
  %14 = tail call i32 @avio_r8(ptr noundef %6) #12
  %.not = icmp eq i32 %14, 0
  %narrow = select i1 %.not, i32 6, i32 %14
  %15 = getelementptr inbounds nuw [128 x %struct.ASFStreamData], ptr %11, i64 0, i64 %indvars.iv
  %16 = tail call fastcc i32 @get_asf_string(ptr noundef %6, i32 noundef %narrow, ptr noundef nonnull %15, i32 noundef 32)
  %17 = icmp sgt i32 %16, -1
  br i1 %17, label %12, label %align_position.exit

.loopexit:                                        ; preds = %12, %2
  %18 = getelementptr inbounds nuw i8, ptr %4, i64 80
  %19 = load i64, ptr %18, align 8, !tbaa !32
  %20 = sub nsw i64 9223372036854775807, %19
  %21 = icmp ult i64 %7, %20
  br i1 %21, label %22, label %align_position.exit

22:                                               ; preds = %.loopexit
  %23 = tail call i64 @avio_seek(ptr noundef %6, i64 noundef 0, i32 noundef 1) #12
  %24 = add i64 %19, %7
  %.not.i = icmp eq i64 %23, %24
  br i1 %.not.i, label %align_position.exit, label %25

25:                                               ; preds = %22
  %26 = tail call i64 @avio_seek(ptr noundef %6, i64 noundef %24, i32 noundef 0) #12
  br label %align_position.exit

align_position.exit:                              ; preds = %13, %25, %22, %.loopexit
  %.2 = phi i32 [ 0, %.loopexit ], [ 0, %22 ], [ 0, %25 ], [ %16, %13 ]
  ret i32 %.2
}